target datalayout = "e-m:e-p270:32:32-p271:32:32-p272:64:64-i64:64-i128:128-f80:128-n8:16:32:64-S128"
target triple = "x86_64-pc-linux-gnu"

%"struct.std::atomic" = type { %"struct.std::__atomic_base" }
%"struct.std::__atomic_base" = type { i64 }
%"class.grpc_core::PolymorphicRefCount" = type { ptr }
%"struct.std::_Rb_tree_header" = type { %"struct.std::_Rb_tree_node_base", i64 }
%"struct.std::_Rb_tree_node_base" = type { i32, ptr, ptr, ptr }
%"class.grpc_core::ClientChannel" = type { %"class.grpc_core::Channel", %"class.grpc_core::ChannelArgs", %"class.std::shared_ptr", %"class.std::__cxx11::basic_string", i64, %"class.grpc_core::RefCountedPtr.24", ptr, %"class.std::__cxx11::basic_string", ptr, %"class.grpc_core::GlobalStatsPluginRegistry::StatsPluginGroup", %"class.grpc_core::Duration", %"class.grpc_core::IdleFilterState", %"class.grpc_core::SingleSetPtr", %"class.grpc_core::Observable", %"class.grpc_core::Observable.31", %"class.grpc_core::RefCountedPtr.33", %"class.std::shared_ptr.34", %"class.grpc_core::ConnectivityStateTracker", %"class.std::unique_ptr.44", i8, %"class.grpc_core::RefCountedPtr.24", %"class.grpc_core::RefCountedPtr.52", %"class.grpc_core::RefCountedPtr.53", %"class.std::unique_ptr.54", %"class.grpc_core::RefCountedPtr.60", %"class.std::map.61", %"class.absl::lts_20240722::flat_hash_set.67", i32, %"class.absl::lts_20240722::Status", %"class.absl::lts_20240722::Mutex", %"class.std::__cxx11::basic_string", %"class.std::__cxx11::basic_string" }
%"class.grpc_core::Channel" = type { %"class.grpc_core::UnstartedCallDestination", %"class.std::__cxx11::basic_string", %"class.grpc_core::RefCountedPtr.13", %struct.grpc_compression_options, %"class.absl::lts_20240722::Mutex", %"class.std::map.16", %"class.grpc_core::RefCountedPtr.22" }
%"class.grpc_core::UnstartedCallDestination" = type { %"class.grpc_core::DualRefCounted.9" }
%"class.grpc_core::DualRefCounted.9" = type { %"class.grpc_core::PolymorphicRefCount", %"struct.std::atomic" }
%"class.grpc_core::RefCountedPtr.13" = type { ptr }
%struct.grpc_compression_options = type { i32, %"struct.grpc_compression_options::grpc_compression_options_default_level", %"struct.grpc_compression_options::grpc_compression_options_default_algorithm" }
%"struct.grpc_compression_options::grpc_compression_options_default_level" = type { i32, i32 }
%"struct.grpc_compression_options::grpc_compression_options_default_algorithm" = type { i32, i32 }
%"class.std::map.16" = type { %"class.std::_Rb_tree.17" }
%"class.std::_Rb_tree.17" = type { %"struct.std::_Rb_tree<std::pair<std::__cxx11::basic_string<char>, std::__cxx11::basic_string<char>>, std::pair<const std::pair<std::__cxx11::basic_string<char>, std::__cxx11::basic_string<char>>, grpc_core::Channel::RegisteredCall>, std::_Select1st<std::pair<const std::pair<std::__cxx11::basic_string<char>, std::__cxx11::basic_string<char>>, grpc_core::Channel::RegisteredCall>>, std::less<std::pair<std::__cxx11::basic_string<char>, std::__cxx11::basic_string<char>>>>::_Rb_tree_impl" }
%"struct.std::_Rb_tree<std::pair<std::__cxx11::basic_string<char>, std::__cxx11::basic_string<char>>, std::pair<const std::pair<std::__cxx11::basic_string<char>, std::__cxx11::basic_string<char>>, grpc_core::Channel::RegisteredCall>, std::_Select1st<std::pair<const std::pair<std::__cxx11::basic_string<char>, std::__cxx11::basic_string<char>>, grpc_core::Channel::RegisteredCall>>, std::less<std::pair<std::__cxx11::basic_string<char>, std::__cxx11::basic_string<char>>>>::_Rb_tree_impl" = type { [8 x i8], %"struct.std::_Rb_tree_header" }
%"class.grpc_core::RefCountedPtr.22" = type { ptr }
%"class.grpc_core::ChannelArgs" = type { %"class.grpc_core::AVL" }
%"class.grpc_core::AVL" = type { %"class.grpc_core::RefCountedPtr.23" }
%"class.grpc_core::RefCountedPtr.23" = type { ptr }
%"class.std::shared_ptr" = type { %"class.std::__shared_ptr" }
%"class.std::__shared_ptr" = type { ptr, %"class.std::__shared_count" }
%"class.std::__shared_count" = type { ptr }
%"class.grpc_core::GlobalStatsPluginRegistry::StatsPluginGroup" = type { %"class.std::vector" }
%"class.std::vector" = type { %"struct.std::_Vector_base" }
%"struct.std::_Vector_base" = type { %"struct.std::_Vector_base<grpc_core::GlobalStatsPluginRegistry::StatsPluginGroup::PluginState, std::allocator<grpc_core::GlobalStatsPluginRegistry::StatsPluginGroup::PluginState>>::_Vector_impl" }
%"struct.std::_Vector_base<grpc_core::GlobalStatsPluginRegistry::StatsPluginGroup::PluginState, std::allocator<grpc_core::GlobalStatsPluginRegistry::StatsPluginGroup::PluginState>>::_Vector_impl" = type { %"struct.std::_Vector_base<grpc_core::GlobalStatsPluginRegistry::StatsPluginGroup::PluginState, std::allocator<grpc_core::GlobalStatsPluginRegistry::StatsPluginGroup::PluginState>>::_Vector_impl_data" }
%"struct.std::_Vector_base<grpc_core::GlobalStatsPluginRegistry::StatsPluginGroup::PluginState, std::allocator<grpc_core::GlobalStatsPluginRegistry::StatsPluginGroup::PluginState>>::_Vector_impl_data" = type { ptr, ptr, ptr }
%"class.grpc_core::Duration" = type { i64 }
%"class.grpc_core::IdleFilterState" = type { %"struct.std::atomic" }
%"class.grpc_core::SingleSetPtr" = type { %"struct.std::atomic.28" }
%"struct.std::atomic.28" = type { %"struct.std::__atomic_base.29" }
%"struct.std::__atomic_base.29" = type { ptr }
%"class.grpc_core::Observable" = type { %"class.grpc_core::RefCountedPtr.30" }
%"class.grpc_core::RefCountedPtr.30" = type { ptr }
%"class.grpc_core::Observable.31" = type { %"class.grpc_core::RefCountedPtr.32" }
%"class.grpc_core::RefCountedPtr.32" = type { ptr }
%"class.grpc_core::RefCountedPtr.33" = type { ptr }
%"class.std::shared_ptr.34" = type { %"class.std::__shared_ptr.35" }
%"class.std::__shared_ptr.35" = type { ptr, %"class.std::__shared_count" }
%"class.grpc_core::ConnectivityStateTracker" = type { ptr, %"struct.std::atomic.37", %"class.absl::lts_20240722::Status", %"class.absl::lts_20240722::flat_hash_set" }
%"struct.std::atomic.37" = type { i32 }
%"class.absl::lts_20240722::flat_hash_set" = type { %"class.absl::lts_20240722::container_internal::raw_hash_set" }
%"class.absl::lts_20240722::container_internal::raw_hash_set" = type { %"class.absl::lts_20240722::container_internal::CompressedTuple" }
%"class.absl::lts_20240722::container_internal::CompressedTuple" = type { %"struct.absl::lts_20240722::container_internal::internal_compressed_tuple::CompressedTupleImpl" }
%"struct.absl::lts_20240722::container_internal::internal_compressed_tuple::CompressedTupleImpl" = type { %"struct.absl::lts_20240722::container_internal::internal_compressed_tuple::Storage" }
%"struct.absl::lts_20240722::container_internal::internal_compressed_tuple::Storage" = type { %"class.absl::lts_20240722::container_internal::CommonFields" }
%"class.absl::lts_20240722::container_internal::CommonFields" = type { i64, i64, %"union.absl::lts_20240722::container_internal::HeapOrSoo" }
%"union.absl::lts_20240722::container_internal::HeapOrSoo" = type { %"struct.absl::lts_20240722::container_internal::HeapPtrs" }
%"struct.absl::lts_20240722::container_internal::HeapPtrs" = type { ptr, %"union.absl::lts_20240722::container_internal::MaybeInitializedPtr" }
%"union.absl::lts_20240722::container_internal::MaybeInitializedPtr" = type { ptr }
%"class.std::unique_ptr.44" = type { %"struct.std::__uniq_ptr_data.45" }
%"struct.std::__uniq_ptr_data.45" = type { %"class.std::__uniq_ptr_impl.46" }
%"class.std::__uniq_ptr_impl.46" = type { %"class.std::tuple.47" }
%"class.std::tuple.47" = type { %"struct.std::_Tuple_impl.48" }
%"struct.std::_Tuple_impl.48" = type { %"struct.std::_Head_base.51" }
%"struct.std::_Head_base.51" = type { ptr }
%"class.grpc_core::RefCountedPtr.24" = type { ptr }
%"class.grpc_core::RefCountedPtr.52" = type { ptr }
%"class.grpc_core::RefCountedPtr.53" = type { ptr }
%"class.std::unique_ptr.54" = type { %"struct.std::__uniq_ptr_data.55" }
%"struct.std::__uniq_ptr_data.55" = type { %"class.std::__uniq_ptr_impl.56" }
%"class.std::__uniq_ptr_impl.56" = type { %"class.std::tuple.57" }
%"class.std::tuple.57" = type { %"struct.std::_Tuple_impl.58" }
%"struct.std::_Tuple_impl.58" = type { %"struct.std::_Head_base.59" }
%"struct.std::_Head_base.59" = type { ptr }
%"class.grpc_core::RefCountedPtr.60" = type { ptr }
%"class.std::map.61" = type { %"class.std::_Rb_tree.62" }
%"class.std::_Rb_tree.62" = type { %"struct.std::_Rb_tree<grpc_core::Subchannel *, std::pair<grpc_core::Subchannel *const, int>, std::_Select1st<std::pair<grpc_core::Subchannel *const, int>>, std::less<grpc_core::Subchannel *>>::_Rb_tree_impl" }
%"struct.std::_Rb_tree<grpc_core::Subchannel *, std::pair<grpc_core::Subchannel *const, int>, std::_Select1st<std::pair<grpc_core::Subchannel *const, int>>, std::less<grpc_core::Subchannel *>>::_Rb_tree_impl" = type { [8 x i8], %"struct.std::_Rb_tree_header" }
%"class.absl::lts_20240722::flat_hash_set.67" = type { %"class.absl::lts_20240722::container_internal::raw_hash_set.68" }
%"class.absl::lts_20240722::container_internal::raw_hash_set.68" = type { %"class.absl::lts_20240722::container_internal::CompressedTuple.69" }
%"class.absl::lts_20240722::container_internal::CompressedTuple.69" = type { %"struct.absl::lts_20240722::container_internal::internal_compressed_tuple::CompressedTupleImpl.70" }
%"struct.absl::lts_20240722::container_internal::internal_compressed_tuple::CompressedTupleImpl.70" = type { %"struct.absl::lts_20240722::container_internal::internal_compressed_tuple::Storage" }
%"class.absl::lts_20240722::Status" = type { i64 }
%"class.absl::lts_20240722::Mutex" = type { %"struct.std::atomic.14" }
%"struct.std::atomic.14" = type { %"struct.std::__atomic_base.15" }
%"struct.std::__atomic_base.15" = type { i64 }
%"class.std::__cxx11::basic_string" = type { %"struct.std::__cxx11::basic_string<char>::_Alloc_hider", i64, %union.anon }
%"struct.std::__cxx11::basic_string<char>::_Alloc_hider" = type { ptr }
%union.anon = type { i64, [8 x i8] }
%"class.std::basic_string_view" = type { i64, ptr }
%"class.grpc_core::channelz::BaseNode" = type { %"class.grpc_core::RefCounted", i32, i64, %"class.std::__cxx11::basic_string" }
%"class.grpc_core::RefCounted" = type { %"class.grpc_core::PolymorphicRefCount", %"class.grpc_core::RefCount" }
%"class.grpc_core::RefCount" = type { %"struct.std::atomic.14" }
%"class.grpc_core::SourceLocation" = type <{ ptr, i32, [4 x i8] }>
%struct.grpc_slice = type { ptr, %"union.grpc_slice::grpc_slice_data" }
%"union.grpc_slice::grpc_slice_data" = type { %"struct.grpc_slice::grpc_slice_data::grpc_slice_refcounted", [8 x i8] }
%"struct.grpc_slice::grpc_slice_data::grpc_slice_refcounted" = type { i64, ptr }
%"class.grpc_core::channelz::ChannelNode" = type { %"class.grpc_core::channelz::BaseNode", %"class.std::__cxx11::basic_string", %"class.grpc_core::channelz::CallCountingHelper", %"class.grpc_core::channelz::ChannelTrace", %"struct.std::atomic.112", %"class.absl::lts_20240722::Mutex", %"class.std::set.114", %"class.std::set.114" }
%"class.grpc_core::channelz::CallCountingHelper" = type { %"struct.std::atomic.14", %"struct.std::atomic.14", %"struct.std::atomic.14", %"struct.std::atomic.111" }
%"struct.std::atomic.111" = type { double }
%"class.grpc_core::channelz::ChannelTrace" = type { i64, %struct.gpr_timespec, %"class.absl::lts_20240722::Mutex", i64, i64, ptr, ptr }
%struct.gpr_timespec = type { i64, i32, i32 }
%"struct.std::atomic.112" = type { %"struct.std::__atomic_base.113" }
%"struct.std::__atomic_base.113" = type { i32 }
%"class.std::set.114" = type { %"class.std::_Rb_tree.115" }
%"class.std::_Rb_tree.115" = type { %"struct.std::_Rb_tree<long, long, std::_Identity<long>, std::less<long>>::_Rb_tree_impl" }
%"struct.std::_Rb_tree<long, long, std::_Identity<long>, std::less<long>>::_Rb_tree_impl" = type { [8 x i8], %"struct.std::_Rb_tree_header" }

@.str.1 = private unnamed_addr constant [129 x i8] c"generated/home/dtcxzyw/WorkSpace/Projects/compilers/llvm-opt-benchmark/bench/grpc/grpc/src/core/client_channel/client_channel.cc\00", align 1
@.str.57 = private unnamed_addr constant [40 x i8] c"Illegal transition SHUTDOWN -> anything\00", align 1

; Function Attrs: noinline noreturn nounwind uwtable
define linkonce_odr hidden void @__clang_call_terminate(ptr noundef %0) #13 comdat {
  %2 = call ptr @__cxa_begin_catch(ptr %0) #3
  call void @_ZSt9terminatev() #36
  unreachable
}

; Function Attrs: mustprogress nounwind uwtable
define linkonce_odr noundef i64 @_ZNSt11char_traitsIcE6lengthEPKc(ptr noundef %0) #5 comdat align 2 {
  %2 = alloca ptr, align 8
  store ptr %0, ptr %2, align 8, !tbaa !138
  %3 = load ptr, ptr %2, align 8, !tbaa !138
  %4 = call i64 @strlen(ptr noundef %3) #3
  ret i64 %4
}

; Function Attrs: mustprogress uwtable
define linkonce_odr void @_ZN9grpc_core8channelz11ChannelNode13AddTraceEventENS0_12ChannelTrace8SeverityERK10grpc_slice(ptr noundef nonnull align 8 dereferenceable(304) %0, i32 noundef %1, ptr noundef nonnull align 8 dereferenceable(32) %2) #4 comdat align 2 {
  %4 = alloca ptr, align 8
  %5 = alloca i32, align 4
  %6 = alloca ptr, align 8
  store ptr %0, ptr %4, align 8, !tbaa !482
  store i32 %1, ptr %5, align 4, !tbaa !483
  store ptr %2, ptr %6, align 8, !tbaa !485
  %7 = load ptr, ptr %4, align 8
  %8 = getelementptr inbounds nuw %"class.grpc_core::channelz::ChannelNode", ptr %7, i32 0, i32 3
  %9 = load i32, ptr %5, align 4, !tbaa !483
  %10 = load ptr, ptr %6, align 8, !tbaa !485
  call void @_ZN9grpc_core8channelz12ChannelTrace13AddTraceEventENS1_8SeverityERK10grpc_slice(ptr noundef nonnull align 8 dereferenceable(64) %8, i32 noundef %9, ptr noundef nonnull align 8 dereferenceable(32) %10)
  ret void
}

; Function Attrs: mustprogress nounwind uwtable
define linkonce_odr void @_ZN9grpc_core14SourceLocationC2EPKci(ptr noundef nonnull align 8 dereferenceable(12) %0, ptr noundef %1, i32 noundef %2) unnamed_addr #5 comdat align 2 {
  %4 = alloca ptr, align 8
  %5 = alloca ptr, align 8
  %6 = alloca i32, align 4
  store ptr %0, ptr %4, align 8, !tbaa !374
  store ptr %1, ptr %5, align 8, !tbaa !138
  store i32 %2, ptr %6, align 4, !tbaa !129
  %7 = load ptr, ptr %4, align 8
  %8 = getelementptr inbounds nuw %"class.grpc_core::SourceLocation", ptr %7, i32 0, i32 0
  %9 = load ptr, ptr %5, align 8, !tbaa !138
  store ptr %9, ptr %8, align 8, !tbaa !376
  %10 = getelementptr inbounds nuw %"class.grpc_core::SourceLocation", ptr %7, i32 0, i32 1
  %11 = load i32, ptr %6, align 4, !tbaa !129
  store i32 %11, ptr %10, align 8, !tbaa !378
  ret void
}

; Function Attrs: mustprogress nounwind uwtable
define linkonce_odr void @_ZNSt17basic_string_viewIcSt11char_traitsIcEEC2EPKc(ptr noundef nonnull align 8 dereferenceable(16) %0, ptr noundef nonnull %1) unnamed_addr #5 comdat align 2 personality ptr @__gxx_personality_v0 {
  %3 = alloca ptr, align 8
  %4 = alloca ptr, align 8
  store ptr %0, ptr %3, align 8, !tbaa !208
  store ptr %1, ptr %4, align 8, !tbaa !138
  %5 = load ptr, ptr %3, align 8
  %6 = getelementptr inbounds nuw %"class.std::basic_string_view", ptr %5, i32 0, i32 0
  %7 = load ptr, ptr %4, align 8, !tbaa !138
  %8 = invoke noundef i64 @_ZNSt11char_traitsIcE6lengthEPKc(ptr noundef %7)
          to label %9 unwind label %12

9:                                                ; preds = %2
  store i64 %8, ptr %6, align 8, !tbaa !210
  %10 = getelementptr inbounds nuw %"class.std::basic_string_view", ptr %5, i32 0, i32 1
  %11 = load ptr, ptr %4, align 8, !tbaa !138
  store ptr %11, ptr %10, align 8, !tbaa !212
  ret void

12:                                               ; preds = %2
  %13 = landingpad { ptr, i32 }
          catch ptr null
  %14 = extractvalue { ptr, i32 } %13, 0
  call void @__clang_call_terminate(ptr %14) #36
  unreachable
}

; Function Attrs: mustprogress uwtable
define void @_ZN9grpc_core13ClientChannel17UpdateStateLockedE23grpc_connectivity_stateRKN4absl12lts_202407226StatusEPKc(ptr noundef nonnull align 8 dereferenceable(632) %0, i32 noundef %1, ptr noundef nonnull align 8 dereferenceable(8) %2, ptr noundef %3) #4 align 2 {
  %5 = alloca ptr, align 8
  %6 = alloca i32, align 4
  %7 = alloca ptr, align 8
  %8 = alloca ptr, align 8
  %9 = alloca %"class.std::basic_string_view", align 8
  %10 = alloca %"class.grpc_core::SourceLocation", align 8
  %11 = alloca %struct.grpc_slice, align 8
  store ptr %0, ptr %5, align 8, !tbaa !14
  store i32 %1, ptr %6, align 4, !tbaa !320
  store ptr %2, ptr %7, align 8, !tbaa !252
  store ptr %3, ptr %8, align 8, !tbaa !138
  %12 = load ptr, ptr %5, align 8
  %13 = load i32, ptr %6, align 4, !tbaa !320
  %14 = icmp ne i32 %13, 4
  br i1 %14, label %15, label %28

15:                                               ; preds = %4
  %16 = getelementptr inbounds nuw %"class.grpc_core::ClientChannel", ptr %12, i32 0, i32 17
  %17 = call noundef i32 @_ZNK9grpc_core24ConnectivityStateTracker5stateEv(ptr noundef nonnull align 8 dereferenceable(56) %16)
  %18 = icmp eq i32 %17, 4
  br i1 %18, label %19, label %28

19:                                               ; preds = %15
  call void @_ZNSt17basic_string_viewIcSt11char_traitsIcEEC2EPKc(ptr noundef nonnull align 8 dereferenceable(16) %9, ptr noundef @.str.57) #3
  call void @_ZN9grpc_core14SourceLocationC2EPKci(ptr noundef nonnull align 8 dereferenceable(12) %10, ptr noundef @.str.1, i32 noundef 1310)
  %20 = getelementptr inbounds nuw { i64, ptr }, ptr %9, i32 0, i32 0
  %21 = load i64, ptr %20, align 8
  %22 = getelementptr inbounds nuw { i64, ptr }, ptr %9, i32 0, i32 1
  %23 = load ptr, ptr %22, align 8
  %24 = getelementptr inbounds nuw { ptr, i32 }, ptr %10, i32 0, i32 0
  %25 = load ptr, ptr %24, align 8
  %26 = getelementptr inbounds nuw { ptr, i32 }, ptr %10, i32 0, i32 1
  %27 = load i32, ptr %26, align 8
  call void @_ZN9grpc_core5CrashESt17basic_string_viewIcSt11char_traitsIcEENS_14SourceLocationE(i64 %21, ptr %23, ptr %25, i32 %27) #39
  unreachable

28:                                               ; preds = %15, %4
  %29 = getelementptr inbounds nuw %"class.grpc_core::ClientChannel", ptr %12, i32 0, i32 17
  %30 = load i32, ptr %6, align 4, !tbaa !320
  %31 = load ptr, ptr %7, align 8, !tbaa !252
  %32 = load ptr, ptr %8, align 8, !tbaa !138
  call void @_ZN9grpc_core24ConnectivityStateTracker8SetStateE23grpc_connectivity_stateRKN4absl12lts_202407226StatusEPKc(ptr noundef nonnull align 8 dereferenceable(56) %29, i32 noundef %30, ptr noundef nonnull align 8 dereferenceable(8) %31, ptr noundef %32)
  %33 = getelementptr inbounds nuw %"class.grpc_core::ClientChannel", ptr %12, i32 0, i32 8
  %34 = load ptr, ptr %33, align 8, !tbaa !18
  %35 = icmp ne ptr %34, null
  br i1 %35, label %36, label %44

36:                                               ; preds = %28
  %37 = getelementptr inbounds nuw %"class.grpc_core::ClientChannel", ptr %12, i32 0, i32 8
  %38 = load ptr, ptr %37, align 8, !tbaa !18
  %39 = load i32, ptr %6, align 4, !tbaa !320
  call void @_ZN9grpc_core8channelz11ChannelNode20SetConnectivityStateE23grpc_connectivity_state(ptr noundef nonnull align 8 dereferenceable(304) %38, i32 noundef %39)
  %40 = getelementptr inbounds nuw %"class.grpc_core::ClientChannel", ptr %12, i32 0, i32 8
  %41 = load ptr, ptr %40, align 8, !tbaa !18
  call void @llvm.lifetime.start.p0(i64 32, ptr %11) #3
  %42 = load i32, ptr %6, align 4, !tbaa !320
  %43 = call noundef ptr @_ZN9grpc_core8channelz11ChannelNode39GetChannelConnectivityStateChangeStringE23grpc_connectivity_state(i32 noundef %42)
  call void @grpc_slice_from_static_string(ptr dead_on_unwind writable sret(%struct.grpc_slice) align 8 %11, ptr noundef %43)
  call void @_ZN9grpc_core8channelz11ChannelNode13AddTraceEventENS0_12ChannelTrace8SeverityERK10grpc_slice(ptr noundef nonnull align 8 dereferenceable(304) %41, i32 noundef 1, ptr noundef nonnull align 8 dereferenceable(32) %11)
  call void @llvm.lifetime.end.p0(i64 32, ptr %11) #3
  br label %44

44:                                               ; preds = %36, %28
  ret void
}