; Function Attrs: mustprogress uwtable
define void @_ZN9grpc_core13ClientChannel17UpdateStateLockedE23grpc_connectivity_stateRKN4absl12lts_202407226StatusEPKc(ptr noundef nonnull align 8 dereferenceable(632) %0, i32 noundef %1, ptr noundef nonnull align 8 dereferenceable(8) %2, ptr noundef %3) local_unnamed_addr #13 align 2 personality ptr @__gxx_personality_v0 {
  %5 = alloca %struct.grpc_slice, align 8
  %.not = icmp eq i32 %1, 4
  br i1 %.not, label %11, label %6

6:                                                ; preds = %4
  %7 = getelementptr inbounds nuw i8, ptr %0, i64 352
  %8 = tail call noundef i32 @_ZNK9grpc_core24ConnectivityStateTracker5stateEv(ptr noundef nonnull align 8 dereferenceable(56) %7)
  %9 = icmp eq i32 %8, 4
  br i1 %9, label %10, label %11

10:                                               ; preds = %6
  tail call void @_ZN9grpc_core5CrashESt17basic_string_viewIcSt11char_traitsIcEENS_14SourceLocationE(i64 39, ptr nonnull @.str.57, ptr nonnull @.str.1, i32 1310) #49
  unreachable

11:                                               ; preds = %6, %4
  %12 = getelementptr inbounds nuw i8, ptr %0, i64 352
  tail call void @_ZN9grpc_core24ConnectivityStateTracker8SetStateE23grpc_connectivity_stateRKN4absl12lts_202407226StatusEPKc(ptr noundef nonnull align 8 dereferenceable(56) %12, i32 noundef %1, ptr noundef nonnull align 8 dereferenceable(8) %2, ptr noundef %3)
  %13 = getelementptr inbounds nuw i8, ptr %0, i64 256
  %14 = load ptr, ptr %13, align 8, !tbaa !31
  %.not6 = icmp eq ptr %14, null
  br i1 %.not6, label %19, label %15

15:                                               ; preds = %11
  tail call void @_ZN9grpc_core8channelz11ChannelNode20SetConnectivityStateE23grpc_connectivity_state(ptr noundef nonnull align 8 dereferenceable(304) %14, i32 noundef %1)
  %16 = load ptr, ptr %13, align 8, !tbaa !31
  call void @llvm.lifetime.start.p0(i64 32, ptr nonnull %5) #42
  %17 = tail call noundef ptr @_ZN9grpc_core8channelz11ChannelNode39GetChannelConnectivityStateChangeStringE23grpc_connectivity_state(i32 noundef %1)
  call void @grpc_slice_from_static_string(ptr dead_on_unwind nonnull writable sret(%struct.grpc_slice) align 8 %5, ptr noundef %17)
  %18 = getelementptr inbounds nuw i8, ptr %16, i64 128
  call void @_ZN9grpc_core8channelz12ChannelTrace13AddTraceEventENS1_8SeverityERK10grpc_slice(ptr noundef nonnull align 8 dereferenceable(64) %18, i32 noundef 1, ptr noundef nonnull align 8 dereferenceable(32) %5)
  call void @llvm.lifetime.end.p0(i64 32, ptr nonnull %5) #42
  br label %19

19:                                               ; preds = %15, %11
  ret void
}